target datalayout = "e-m:e-p270:32:32-p271:32:32-p272:64:64-i64:64-i128:128-f80:128-n8:16:32:64-S128"
target triple = "x86_64-pc-linux-gnu"

%struct.png_struct_def = type { [1 x %struct.__jmp_buf_tag], ptr, ptr, i64, ptr, ptr, ptr, ptr, ptr, ptr, ptr, ptr, ptr, i8, i8, i32, i32, i32, i32, %struct.z_stream_s, ptr, i32, i32, i32, i32, i32, i32, i32, i32, i32, i32, i32, i32, i32, i32, i32, i32, i32, i32, i32, i32, i32, i64, i32, i32, i32, ptr, ptr, ptr, ptr, i64, i32, i32, ptr, i16, i32, i16, i8, i8, i8, i8, i8, i8, i8, i8, i8, i8, i8, i8, i8, i8, i8, i16, i8, i32, %struct.png_color_16_struct, %struct.png_color_16_struct, ptr, i32, i32, %struct.png_xy, i32, i32, i32, i32, i32, ptr, ptr, ptr, ptr, ptr, ptr, %struct.png_color_8_struct, %struct.png_color_8_struct, ptr, %struct.png_color_16_struct, ptr, ptr, ptr, ptr, ptr, ptr, ptr, ptr, ptr, i32, i32, i64, i64, i64, i64, i32, i32, ptr, ptr, i32, [29 x i8], i32, ptr, ptr, i32, i32, ptr, i8, i8, i16, i16, ptr, i32, i8, ptr, ptr, ptr, ptr, ptr, ptr, ptr, i8, i32, i32, i32, i64, %struct.png_unknown_chunk_t, i64, ptr, i64, i32, i32, ptr, [4 x ptr] }
%struct.__jmp_buf_tag = type { [8 x i64], i32, %struct.__sigset_t }
%struct.__sigset_t = type { [16 x i64] }
%struct.z_stream_s = type { ptr, i32, i64, ptr, i32, i64, ptr, ptr, ptr, ptr, ptr, i32, i64, i64 }
%struct.png_xy = type { i32, i32, i32, i32, i32, i32, i32, i32 }
%struct.png_color_8_struct = type { i8, i8, i8, i8, i8 }
%struct.png_color_16_struct = type { i8, i16, i16, i16, i16 }
%struct.png_unknown_chunk_t = type { [5 x i8], ptr, i64, i8 }
%struct.anon = type { ptr, i32 }

@.str.11 = private unnamed_addr constant [13 x i8] c"missing IHDR\00", align 1
@.str.12 = private unnamed_addr constant [13 x i8] c"out of place\00", align 1
@.str.13 = private unnamed_addr constant [10 x i8] c"duplicate\00", align 1
@.str.14 = private unnamed_addr constant [10 x i8] c"too short\00", align 1
@.str.15 = private unnamed_addr constant [28 x i8] c"length exceeds libpng limit\00", align 1
@.str.16 = private unnamed_addr constant [9 x i8] c"too long\00", align 1

; Function Attrs: nounwind uwtable
define i32 @png_crc_finish(ptr noalias noundef %0, i32 noundef %1) #0 {
  %3 = alloca ptr, align 8
  %4 = alloca i32, align 4
  store ptr %0, ptr %3, align 8, !tbaa !3
  store i32 %1, ptr %4, align 4, !tbaa !11
  %5 = load ptr, ptr %3, align 8, !tbaa !3
  %6 = load i32, ptr %4, align 4, !tbaa !11
  %7 = call i32 @png_crc_finish_critical(ptr noundef %5, i32 noundef %6, i32 noundef 0)
  ret i32 %7
}

; Function Attrs: nounwind uwtable
define internal i32 @png_chunk_index_from_name(i32 noundef %0) #0 {
  %2 = alloca i32, align 4
  %3 = alloca i32, align 4
  store i32 %0, ptr %3, align 4, !tbaa !11
  %4 = load i32, ptr %3, align 4, !tbaa !11
  switch i32 %4, label %33 [
    i32 1229472850, label %5
    i32 1347179589, label %6
    i32 1229209940, label %7
    i32 1229278788, label %8
    i32 1633899596, label %9
    i32 1649100612, label %10
    i32 1665684045, label %11
    i32 1665745744, label %12
    i32 1665944649, label %13
    i32 1700284774, label %14
    i32 1717785676, label %15
    i32 1717846356, label %16
    i32 1732332865, label %17
    i32 1749635924, label %18
    i32 1766015824, label %19
    i32 1767135348, label %20
    i32 1833190230, label %21
    i32 1866876531, label %22
    i32 1883455820, label %23
    i32 1883789683, label %24
    i32 1933723988, label %25
    i32 1933787468, label %26
    i32 1934642260, label %27
    i32 1934772034, label %28
    i32 1950701684, label %29
    i32 1950960965, label %30
    i32 1951551059, label %31
    i32 2052348020, label %32
  ]

5:                                                ; preds = %1
  store i32 0, ptr %2, align 4
  br label %34

6:                                                ; preds = %1
  store i32 1, ptr %2, align 4
  br label %34

7:                                                ; preds = %1
  store i32 2, ptr %2, align 4
  br label %34

8:                                                ; preds = %1
  store i32 3, ptr %2, align 4
  br label %34

9:                                                ; preds = %1
  store i32 4, ptr %2, align 4
  br label %34

10:                                               ; preds = %1
  store i32 5, ptr %2, align 4
  br label %34

11:                                               ; preds = %1
  store i32 6, ptr %2, align 4
  br label %34

12:                                               ; preds = %1
  store i32 7, ptr %2, align 4
  br label %34

13:                                               ; preds = %1
  store i32 8, ptr %2, align 4
  br label %34

14:                                               ; preds = %1
  store i32 9, ptr %2, align 4
  br label %34

15:                                               ; preds = %1
  store i32 10, ptr %2, align 4
  br label %34

16:                                               ; preds = %1
  store i32 11, ptr %2, align 4
  br label %34

17:                                               ; preds = %1
  store i32 12, ptr %2, align 4
  br label %34

18:                                               ; preds = %1
  store i32 13, ptr %2, align 4
  br label %34

19:                                               ; preds = %1
  store i32 14, ptr %2, align 4
  br label %34

20:                                               ; preds = %1
  store i32 15, ptr %2, align 4
  br label %34

21:                                               ; preds = %1
  store i32 16, ptr %2, align 4
  br label %34

22:                                               ; preds = %1
  store i32 17, ptr %2, align 4
  br label %34

23:                                               ; preds = %1
  store i32 18, ptr %2, align 4
  br label %34

24:                                               ; preds = %1
  store i32 19, ptr %2, align 4
  br label %34

25:                                               ; preds = %1
  store i32 20, ptr %2, align 4
  br label %34

26:                                               ; preds = %1
  store i32 21, ptr %2, align 4
  br label %34

27:                                               ; preds = %1
  store i32 22, ptr %2, align 4
  br label %34

28:                                               ; preds = %1
  store i32 23, ptr %2, align 4
  br label %34

29:                                               ; preds = %1
  store i32 24, ptr %2, align 4
  br label %34

30:                                               ; preds = %1
  store i32 25, ptr %2, align 4
  br label %34

31:                                               ; preds = %1
  store i32 26, ptr %2, align 4
  br label %34

32:                                               ; preds = %1
  store i32 27, ptr %2, align 4
  br label %34

33:                                               ; preds = %1
  store i32 28, ptr %2, align 4
  br label %34

34:                                               ; preds = %33, %32, %31, %30, %29, %28, %27, %26, %25, %24, %23, %22, %21, %20, %19, %18, %17, %16, %15, %14, %13, %12, %11, %10, %9, %8, %7, %6, %5
  %35 = load i32, ptr %2, align 4
  ret i32 %35
}

; Function Attrs: nounwind uwtable
define i32 @png_handle_chunk(ptr noalias noundef %0, ptr noalias noundef %1, i32 noundef %2) #0 {
  %4 = alloca ptr, align 8
  %5 = alloca ptr, align 8
  %6 = alloca i32, align 4
  %7 = alloca i32, align 4
  %8 = alloca i32, align 4
  %9 = alloca i32, align 4
  %10 = alloca ptr, align 8
  %11 = alloca i32, align 4
  store ptr %0, ptr %4, align 8, !tbaa !3
  store ptr %1, ptr %5, align 8, !tbaa !13
  store i32 %2, ptr %6, align 4, !tbaa !11
  call void @llvm.lifetime.start.p0(i64 4, ptr %7) #7
  %12 = load ptr, ptr %4, align 8, !tbaa !3
  %13 = getelementptr inbounds nuw %struct.png_struct_def, ptr %12, i32 0, i32 45
  %14 = load i32, ptr %13, align 8, !tbaa !32
  store i32 %14, ptr %7, align 4, !tbaa !11
  call void @llvm.lifetime.start.p0(i64 4, ptr %8) #7
  %15 = load i32, ptr %7, align 4, !tbaa !11
  %16 = call i32 @png_chunk_index_from_name(i32 noundef %15)
  store i32 %16, ptr %8, align 4, !tbaa !11
  call void @llvm.lifetime.start.p0(i64 4, ptr %9) #7
  store i32 0, ptr %9, align 4, !tbaa !11
  call void @llvm.lifetime.start.p0(i64 8, ptr %10) #7
  store ptr null, ptr %10, align 8, !tbaa !8
  %17 = load i32, ptr %8, align 4, !tbaa !11
  %18 = icmp eq i32 %17, 28
  br i1 %18, label %26, label %19

19:                                               ; preds = %3
  %20 = load i32, ptr %8, align 4, !tbaa !11
  %21 = zext i32 %20 to i64
  %22 = getelementptr inbounds nuw [28 x %struct.anon], ptr @read_chunks, i64 0, i64 %21
  %23 = getelementptr inbounds nuw %struct.anon, ptr %22, i32 0, i32 0
  %24 = load ptr, ptr %23, align 16, !tbaa !47
  %25 = icmp eq ptr %24, null
  br i1 %25, label %26, label %31

26:                                               ; preds = %19, %3
  %27 = load ptr, ptr %4, align 8, !tbaa !3
  %28 = load ptr, ptr %5, align 8, !tbaa !13
  %29 = load i32, ptr %6, align 4, !tbaa !11
  %30 = call i32 @png_handle_unknown(ptr noundef %27, ptr noundef %28, i32 noundef %29, i32 noundef 0)
  store i32 %30, ptr %9, align 4, !tbaa !11
  br label %145

31:                                               ; preds = %19
  %32 = load i32, ptr %8, align 4, !tbaa !11
  %33 = icmp ne i32 %32, 0
  br i1 %33, label %34, label %42

34:                                               ; preds = %31
  %35 = load ptr, ptr %4, align 8, !tbaa !3
  %36 = getelementptr inbounds nuw %struct.png_struct_def, ptr %35, i32 0, i32 15
  %37 = load i32, ptr %36, align 4, !tbaa !31
  %38 = and i32 %37, 1
  %39 = icmp eq i32 %38, 0
  br i1 %39, label %40, label %42

40:                                               ; preds = %34
  %41 = load ptr, ptr %4, align 8, !tbaa !3
  call void @png_chunk_error(ptr noundef %41, ptr noundef @.str.11) #8
  unreachable

42:                                               ; preds = %34, %31
  %43 = load ptr, ptr %4, align 8, !tbaa !3
  %44 = getelementptr inbounds nuw %struct.png_struct_def, ptr %43, i32 0, i32 15
  %45 = load i32, ptr %44, align 4, !tbaa !31
  %46 = load i32, ptr %8, align 4, !tbaa !11
  %47 = zext i32 %46 to i64
  %48 = getelementptr inbounds nuw [28 x %struct.anon], ptr @read_chunks, i64 0, i64 %47
  %49 = getelementptr inbounds nuw %struct.anon, ptr %48, i32 0, i32 1
  %50 = load i32, ptr %49, align 8
  %51 = lshr i32 %50, 20
  %52 = and i32 %51, 15
  %53 = and i32 %45, %52
  %54 = icmp ne i32 %53, 0
  br i1 %54, label %75, label %55

55:                                               ; preds = %42
  %56 = load ptr, ptr %4, align 8, !tbaa !3
  %57 = getelementptr inbounds nuw %struct.png_struct_def, ptr %56, i32 0, i32 15
  %58 = load i32, ptr %57, align 4, !tbaa !31
  %59 = load i32, ptr %8, align 4, !tbaa !11
  %60 = zext i32 %59 to i64
  %61 = getelementptr inbounds nuw [28 x %struct.anon], ptr @read_chunks, i64 0, i64 %60
  %62 = getelementptr inbounds nuw %struct.anon, ptr %61, i32 0, i32 1
  %63 = load i32, ptr %62, align 8
  %64 = lshr i32 %63, 24
  %65 = and i32 %64, 15
  %66 = and i32 %58, %65
  %67 = load i32, ptr %8, align 4, !tbaa !11
  %68 = zext i32 %67 to i64
  %69 = getelementptr inbounds nuw [28 x %struct.anon], ptr @read_chunks, i64 0, i64 %68
  %70 = getelementptr inbounds nuw %struct.anon, ptr %69, i32 0, i32 1
  %71 = load i32, ptr %70, align 8
  %72 = lshr i32 %71, 24
  %73 = and i32 %72, 15
  %74 = icmp ne i32 %66, %73
  br i1 %74, label %75, label %76

75:                                               ; preds = %55, %42
  store ptr @.str.12, ptr %10, align 8, !tbaa !8
  br label %143

76:                                               ; preds = %55
  %77 = load i32, ptr %8, align 4, !tbaa !11
  %78 = zext i32 %77 to i64
  %79 = getelementptr inbounds nuw [28 x %struct.anon], ptr @read_chunks, i64 0, i64 %78
  %80 = getelementptr inbounds nuw %struct.anon, ptr %79, i32 0, i32 1
  %81 = load i32, ptr %80, align 8
  %82 = lshr i32 %81, 28
  %83 = and i32 %82, 1
  %84 = icmp eq i32 %83, 0
  br i1 %84, label %85, label %95

85:                                               ; preds = %76
  %86 = load ptr, ptr %4, align 8, !tbaa !3
  %87 = getelementptr inbounds nuw %struct.png_struct_def, ptr %86, i32 0, i32 37
  %88 = load i32, ptr %87, align 8, !tbaa !49
  %89 = load i32, ptr %8, align 4, !tbaa !11
  %90 = sub i32 31, %89
  %91 = lshr i32 -2147483648, %90
  %92 = and i32 %88, %91
  %93 = icmp ne i32 %92, 0
  br i1 %93, label %94, label %95

94:                                               ; preds = %85
  store ptr @.str.13, ptr %10, align 8, !tbaa !8
  br label %142

95:                                               ; preds = %85, %76
  %96 = load i32, ptr %6, align 4, !tbaa !11
  %97 = load i32, ptr %8, align 4, !tbaa !11
  %98 = zext i32 %97 to i64
  %99 = getelementptr inbounds nuw [28 x %struct.anon], ptr @read_chunks, i64 0, i64 %98
  %100 = getelementptr inbounds nuw %struct.anon, ptr %99, i32 0, i32 1
  %101 = load i32, ptr %100, align 8
  %102 = lshr i32 %101, 12
  %103 = and i32 %102, 255
  %104 = icmp ult i32 %96, %103
  br i1 %104, label %105, label %106

105:                                              ; preds = %95
  store ptr @.str.14, ptr %10, align 8, !tbaa !8
  br label %141

106:                                              ; preds = %95
  call void @llvm.lifetime.start.p0(i64 4, ptr %11) #7
  %107 = load i32, ptr %8, align 4, !tbaa !11
  %108 = zext i32 %107 to i64
  %109 = getelementptr inbounds nuw [28 x %struct.anon], ptr @read_chunks, i64 0, i64 %108
  %110 = getelementptr inbounds nuw %struct.anon, ptr %109, i32 0, i32 1
  %111 = load i32, ptr %110, align 8
  %112 = and i32 %111, 4095
  store i32 %112, ptr %11, align 4, !tbaa !11
  %113 = load i32, ptr %11, align 4, !tbaa !11
  switch i32 %113, label %123 [
    i32 2050, label %114
    i32 2049, label %129
  ]

114:                                              ; preds = %106
  %115 = load i32, ptr %6, align 4, !tbaa !11
  %116 = zext i32 %115 to i64
  %117 = load ptr, ptr %4, align 8, !tbaa !3
  %118 = getelementptr inbounds nuw %struct.png_struct_def, ptr %117, i32 0, i32 141
  %119 = load i64, ptr %118, align 8, !tbaa !44
  %120 = icmp ule i64 %116, %119
  br i1 %120, label %121, label %122

121:                                              ; preds = %114
  br label %130

122:                                              ; preds = %114
  store ptr @.str.15, ptr %10, align 8, !tbaa !8
  br label %140

123:                                              ; preds = %106
  %124 = load i32, ptr %6, align 4, !tbaa !11
  %125 = load i32, ptr %11, align 4, !tbaa !11
  %126 = icmp ule i32 %124, %125
  br i1 %126, label %127, label %128

127:                                              ; preds = %123
  br label %130

128:                                              ; preds = %123
  store ptr @.str.16, ptr %10, align 8, !tbaa !8
  br label %140

129:                                              ; preds = %106
  br label %130

130:                                              ; preds = %129, %127, %121
  %131 = load i32, ptr %8, align 4, !tbaa !11
  %132 = zext i32 %131 to i64
  %133 = getelementptr inbounds nuw [28 x %struct.anon], ptr @read_chunks, i64 0, i64 %132
  %134 = getelementptr inbounds nuw %struct.anon, ptr %133, i32 0, i32 0
  %135 = load ptr, ptr %134, align 16, !tbaa !47
  %136 = load ptr, ptr %4, align 8, !tbaa !3
  %137 = load ptr, ptr %5, align 8, !tbaa !13
  %138 = load i32, ptr %6, align 4, !tbaa !11
  %139 = call i32 %135(ptr noundef %136, ptr noundef %137, i32 noundef %138)
  store i32 %139, ptr %9, align 4, !tbaa !11
  br label %140

140:                                              ; preds = %130, %128, %122
  call void @llvm.lifetime.end.p0(i64 4, ptr %11) #7
  br label %141

141:                                              ; preds = %140, %105
  br label %142

142:                                              ; preds = %141, %94
  br label %143

143:                                              ; preds = %142, %75
  br label %144

144:                                              ; preds = %143
  br label %145

145:                                              ; preds = %144, %26
  %146 = load ptr, ptr %10, align 8, !tbaa !8
  %147 = icmp ne ptr %146, null
  br i1 %147, label %148, label %163

148:                                              ; preds = %145
  %149 = load i32, ptr %7, align 4, !tbaa !11
  %150 = lshr i32 %149, 29
  %151 = and i32 1, %150
  %152 = icmp ne i32 %151, 0
  br i1 %152, label %156, label %153

153:                                              ; preds = %148
  %154 = load ptr, ptr %4, align 8, !tbaa !3
  %155 = load ptr, ptr %10, align 8, !tbaa !8
  call void @png_chunk_error(ptr noundef %154, ptr noundef %155) #8
  unreachable

156:                                              ; preds = %148
  %157 = load ptr, ptr %4, align 8, !tbaa !3
  %158 = load i32, ptr %6, align 4, !tbaa !11
  %159 = call i32 @png_crc_finish(ptr noundef %157, i32 noundef %158)
  %160 = load ptr, ptr %4, align 8, !tbaa !3
  %161 = load ptr, ptr %10, align 8, !tbaa !8
  call void @png_chunk_benign_error(ptr noundef %160, ptr noundef %161)
  br label %162

162:                                              ; preds = %156
  br label %179

163:                                              ; preds = %145
  %164 = load i32, ptr %9, align 4, !tbaa !11
  %165 = icmp uge i32 %164, 2
  br i1 %165, label %166, label %178

166:                                              ; preds = %163
  %167 = load i32, ptr %8, align 4, !tbaa !11
  %168 = icmp ne i32 %167, 28
  br i1 %168, label %169, label %177

169:                                              ; preds = %166
  %170 = load i32, ptr %8, align 4, !tbaa !11
  %171 = sub i32 31, %170
  %172 = lshr i32 -2147483648, %171
  %173 = load ptr, ptr %4, align 8, !tbaa !3
  %174 = getelementptr inbounds nuw %struct.png_struct_def, ptr %173, i32 0, i32 37
  %175 = load i32, ptr %174, align 8, !tbaa !49
  %176 = or i32 %175, %172
  store i32 %176, ptr %174, align 8, !tbaa !49
  br label %177

177:                                              ; preds = %169, %166
  br label %178

178:                                              ; preds = %177, %163
  br label %179

179:                                              ; preds = %178, %162
  %180 = load i32, ptr %9, align 4, !tbaa !11
  call void @llvm.lifetime.end.p0(i64 8, ptr %10) #7
  call void @llvm.lifetime.end.p0(i64 4, ptr %9) #7
  call void @llvm.lifetime.end.p0(i64 4, ptr %8) #7
  call void @llvm.lifetime.end.p0(i64 4, ptr %7) #7
  ret i32 %180
}