; Function Attrs: nounwind uwtable
define i32 @png_handle_chunk(ptr noalias noundef %0, ptr noalias noundef %1, i32 noundef %2) local_unnamed_addr #0 {
  %4 = getelementptr inbounds nuw i8, ptr %0, i64 544
  %5 = load i32, ptr %4, align 8, !tbaa !28
  switch i32 %5, label %png_chunk_index_from_name.exit [
    i32 1229472850, label %..thread61_crit_edge
    i32 1347179589, label %32
    i32 1229209940, label %6
    i32 1229278788, label %7
    i32 1633899596, label %8
    i32 1649100612, label %9
    i32 1665684045, label %10
    i32 1665745744, label %11
    i32 1665944649, label %12
    i32 1700284774, label %13
    i32 1717785676, label %14
    i32 1717846356, label %15
    i32 1732332865, label %16
    i32 1749635924, label %17
    i32 1766015824, label %18
    i32 1767135348, label %19
    i32 1833190230, label %20
    i32 1866876531, label %21
    i32 1883455820, label %22
    i32 1883789683, label %23
    i32 1933723988, label %24
    i32 1933787468, label %25
    i32 1934642260, label %26
    i32 1934772034, label %27
    i32 1950701684, label %28
    i32 1950960965, label %29
    i32 1951551059, label %30
    i32 2052348020, label %31
  ]

..thread61_crit_edge:                             ; preds = %3
  %.phi.trans.insert = getelementptr inbounds nuw i8, ptr %0, i64 300
  %.pre = load i32, ptr %.phi.trans.insert, align 4, !tbaa !24
  br label %.thread61

6:                                                ; preds = %3
  br label %32

7:                                                ; preds = %3
  br label %32

8:                                                ; preds = %3
  br label %32

9:                                                ; preds = %3
  br label %32

10:                                               ; preds = %3
  br label %32

11:                                               ; preds = %3
  br label %32

12:                                               ; preds = %3
  br label %32

13:                                               ; preds = %3
  br label %32

14:                                               ; preds = %3
  br label %32

15:                                               ; preds = %3
  br label %32

16:                                               ; preds = %3
  br label %32

17:                                               ; preds = %3
  br label %32

18:                                               ; preds = %3
  br label %32

19:                                               ; preds = %3
  br label %32

20:                                               ; preds = %3
  br label %32

21:                                               ; preds = %3
  br label %32

22:                                               ; preds = %3
  br label %32

23:                                               ; preds = %3
  br label %32

24:                                               ; preds = %3
  br label %32

25:                                               ; preds = %3
  br label %32

26:                                               ; preds = %3
  br label %32

27:                                               ; preds = %3
  br label %32

28:                                               ; preds = %3
  br label %32

29:                                               ; preds = %3
  br label %32

30:                                               ; preds = %3
  br label %32

31:                                               ; preds = %3
  br label %32

32:                                               ; preds = %3, %31, %30, %29, %28, %27, %26, %25, %24, %23, %22, %21, %20, %19, %18, %17, %16, %15, %14, %13, %12, %11, %10, %9, %8, %7, %6
  %.0.i.ph = phi i32 [ 2, %6 ], [ 3, %7 ], [ 4, %8 ], [ 5, %9 ], [ 6, %10 ], [ 7, %11 ], [ 8, %12 ], [ 9, %13 ], [ 10, %14 ], [ 11, %15 ], [ 12, %16 ], [ 13, %17 ], [ 14, %18 ], [ 15, %19 ], [ 16, %20 ], [ 17, %21 ], [ 18, %22 ], [ 19, %23 ], [ 20, %24 ], [ 21, %25 ], [ 22, %26 ], [ 23, %27 ], [ 24, %28 ], [ 25, %29 ], [ 26, %30 ], [ 27, %31 ], [ 1, %3 ]
  %33 = zext nneg i32 %.0.i.ph to i64
  %34 = getelementptr inbounds nuw [28 x %struct.anon], ptr @read_chunks, i64 0, i64 %33
  %35 = load ptr, ptr %34, align 16, !tbaa !49
  %36 = icmp eq ptr %35, null
  br i1 %36, label %png_chunk_index_from_name.exit, label %38

png_chunk_index_from_name.exit:                   ; preds = %3, %32
  %.0.i57 = phi i32 [ %.0.i.ph, %32 ], [ 28, %3 ]
  %37 = tail call i32 @png_handle_unknown(ptr noundef nonnull %0, ptr noundef %1, i32 noundef %2, i32 noundef 0)
  br label %83

38:                                               ; preds = %32
  %39 = getelementptr inbounds nuw i8, ptr %0, i64 300
  %40 = load i32, ptr %39, align 4, !tbaa !24
  %41 = and i32 %40, 1
  %42 = icmp eq i32 %41, 0
  br i1 %42, label %43, label %.thread61

43:                                               ; preds = %38
  tail call void @png_chunk_error(ptr noundef nonnull %0, ptr noundef nonnull @.str.11) #11
  unreachable

.thread61:                                        ; preds = %..thread61_crit_edge, %38
  %44 = phi i32 [ %40, %38 ], [ %.pre, %..thread61_crit_edge ]
  %.0.i.ph6064 = phi i32 [ %.0.i.ph, %38 ], [ 0, %..thread61_crit_edge ]
  %45 = phi ptr [ %34, %38 ], [ @read_chunks, %..thread61_crit_edge ]
  %46 = phi ptr [ %35, %38 ], [ @png_handle_IHDR, %..thread61_crit_edge ]
  %47 = getelementptr inbounds nuw i8, ptr %45, i64 8
  %48 = load i32, ptr %47, align 8
  %49 = lshr i32 %48, 20
  %50 = and i32 %44, 15
  %51 = and i32 %50, %49
  %.not48 = icmp eq i32 %51, 0
  br i1 %.not48, label %52, label %78

52:                                               ; preds = %.thread61
  %53 = lshr i32 %48, 24
  %54 = and i32 %53, 15
  %55 = and i32 %54, %44
  %.not49 = icmp eq i32 %55, %54
  br i1 %.not49, label %56, label %78

56:                                               ; preds = %52
  %57 = and i32 %48, 268435456
  %58 = icmp eq i32 %57, 0
  br i1 %58, label %59, label %65

59:                                               ; preds = %56
  %60 = getelementptr inbounds nuw i8, ptr %0, i64 504
  %61 = load i32, ptr %60, align 8, !tbaa !51
  %62 = xor i32 %.0.i.ph6064, 31
  %63 = lshr exact i32 -2147483648, %62
  %64 = and i32 %61, %63
  %.not50 = icmp eq i32 %64, 0
  br i1 %.not50, label %65, label %78

65:                                               ; preds = %59, %56
  %66 = lshr i32 %48, 12
  %67 = and i32 %66, 255
  %68 = icmp ult i32 %2, %67
  br i1 %68, label %78, label %69

69:                                               ; preds = %65
  %70 = and i32 %48, 4095
  switch i32 %70, label %75 [
    i32 2050, label %71
    i32 2049, label %76
  ]

71:                                               ; preds = %69
  %72 = zext i32 %2 to i64
  %73 = getelementptr inbounds nuw i8, ptr %0, i64 1128
  %74 = load i64, ptr %73, align 8, !tbaa !46
  %.not51 = icmp ult i64 %74, %72
  br i1 %.not51, label %78, label %76

75:                                               ; preds = %69
  %.not52 = icmp ugt i32 %2, %70
  br i1 %.not52, label %78, label %76

76:                                               ; preds = %69, %75, %71
  %77 = tail call i32 %46(ptr noundef nonnull %0, ptr noundef %1, i32 noundef %2) #12
  br label %83

78:                                               ; preds = %52, %.thread61, %59, %65, %71, %75
  %.043.ph = phi ptr [ @.str.16, %75 ], [ @.str.15, %71 ], [ @.str.14, %65 ], [ @.str.13, %59 ], [ @.str.12, %.thread61 ], [ @.str.12, %52 ]
  %79 = and i32 %5, 536870912
  %.not54 = icmp eq i32 %79, 0
  br i1 %.not54, label %80, label %81

80:                                               ; preds = %78
  tail call void @png_chunk_error(ptr noundef nonnull %0, ptr noundef nonnull %.043.ph) #11
  unreachable

81:                                               ; preds = %78
  %82 = tail call fastcc range(i32 0, 2) i32 @png_crc_finish_critical(ptr noundef nonnull %0, i32 noundef %2, i32 noundef 0)
  tail call void @png_chunk_benign_error(ptr noundef nonnull %0, ptr noundef nonnull %.043.ph) #12
  br label %92

83:                                               ; preds = %png_chunk_index_from_name.exit, %76
  %.0.i56 = phi i32 [ %.0.i57, %png_chunk_index_from_name.exit ], [ %.0.i.ph6064, %76 ]
  %.0 = phi i32 [ %37, %png_chunk_index_from_name.exit ], [ %77, %76 ]
  %84 = icmp ugt i32 %.0, 1
  %85 = icmp ne i32 %.0.i56, 28
  %or.cond = and i1 %85, %84
  br i1 %or.cond, label %86, label %92

86:                                               ; preds = %83
  %87 = xor i32 %.0.i56, 31
  %88 = lshr exact i32 -2147483648, %87
  %89 = getelementptr inbounds nuw i8, ptr %0, i64 504
  %90 = load i32, ptr %89, align 8, !tbaa !51
  %91 = or i32 %90, %88
  store i32 %91, ptr %89, align 8, !tbaa !51
  br label %92

92:                                               ; preds = %83, %86, %81
  %.071 = phi i32 [ %.0, %83 ], [ %.0, %86 ], [ 0, %81 ]
  ret i32 %.071
}